target datalayout = "e-m:e-p270:32:32-p271:32:32-p272:64:64-i64:64-i128:128-f80:128-n8:16:32:64-S128"
target triple = "x86_64-pc-linux-gnu"

@x509 = internal global ptr null, align 8
@x509_it = internal global ptr null, align 8
@.str.14 = private unnamed_addr constant [28 x i8] c"../openssl/test/http_test.c\00", align 1
@.str.15 = private unnamed_addr constant [51 x i8] c"(x509 = load_cert_pem(test_get_argument(0), NULL))\00", align 1
@.str.16 = private unnamed_addr constant [18 x i8] c"test_http_url_dns\00", align 1
@.str.17 = private unnamed_addr constant [25 x i8] c"test_http_url_path_query\00", align 1
@.str.18 = private unnamed_addr constant [38 x i8] c"test_http_url_userinfo_query_fragment\00", align 1
@.str.19 = private unnamed_addr constant [19 x i8] c"test_http_url_ipv4\00", align 1
@.str.20 = private unnamed_addr constant [19 x i8] c"test_http_url_ipv6\00", align 1
@.str.21 = private unnamed_addr constant [29 x i8] c"test_http_url_invalid_prefix\00", align 1
@.str.22 = private unnamed_addr constant [27 x i8] c"test_http_url_invalid_port\00", align 1
@.str.23 = private unnamed_addr constant [27 x i8] c"test_http_url_invalid_path\00", align 1
@.str.24 = private unnamed_addr constant [18 x i8] c"test_http_get_txt\00", align 1
@.str.25 = private unnamed_addr constant [29 x i8] c"test_http_get_txt_redirected\00", align 1
@.str.26 = private unnamed_addr constant [31 x i8] c"test_http_get_txt_fatal_status\00", align 1
@.str.27 = private unnamed_addr constant [31 x i8] c"test_http_get_txt_error_status\00", align 1
@.str.28 = private unnamed_addr constant [19 x i8] c"test_http_post_txt\00", align 1
@.str.29 = private unnamed_addr constant [19 x i8] c"test_http_get_x509\00", align 1
@.str.30 = private unnamed_addr constant [30 x i8] c"test_http_get_x509_redirected\00", align 1
@.str.31 = private unnamed_addr constant [20 x i8] c"test_http_post_x509\00", align 1
@.str.32 = private unnamed_addr constant [33 x i8] c"test_http_post_x509_fatal_status\00", align 1
@.str.33 = private unnamed_addr constant [33 x i8] c"test_http_post_x509_error_status\00", align 1
@.str.34 = private unnamed_addr constant [29 x i8] c"test_http_keep_alive_0_no_no\00", align 1
@.str.35 = private unnamed_addr constant [29 x i8] c"test_http_keep_alive_1_no_no\00", align 1
@.str.36 = private unnamed_addr constant [34 x i8] c"test_http_keep_alive_0_prefer_yes\00", align 1
@.str.37 = private unnamed_addr constant [34 x i8] c"test_http_keep_alive_1_prefer_yes\00", align 1
@.str.38 = private unnamed_addr constant [35 x i8] c"test_http_keep_alive_0_require_yes\00", align 1
@.str.39 = private unnamed_addr constant [35 x i8] c"test_http_keep_alive_1_require_yes\00", align 1
@.str.40 = private unnamed_addr constant [34 x i8] c"test_http_keep_alive_0_require_no\00", align 1
@.str.41 = private unnamed_addr constant [34 x i8] c"test_http_keep_alive_1_require_no\00", align 1
@.str.42 = private unnamed_addr constant [29 x i8] c"test_hdr_resp_hdr_limit_none\00", align 1
@.str.43 = private unnamed_addr constant [30 x i8] c"test_hdr_resp_hdr_limit_short\00", align 1
@.str.44 = private unnamed_addr constant [28 x i8] c"test_hdr_resp_hdr_limit_256\00", align 1

; Function Attrs: nounwind uwtable
define dso_local i32 @setup_tests() #0 {
  %1 = alloca i32, align 4
  %2 = call i32 @test_skip_common_options()
  %3 = icmp ne i32 %2, 0
  br i1 %3, label %5, label %4

4:                                                ; preds = %0
  store i32 0, ptr %1, align 4
  br label %13

5:                                                ; preds = %0
  %6 = call ptr @X509_it()
  store ptr %6, ptr @x509_it, align 8, !tbaa !9
  %7 = call ptr @test_get_argument(i64 noundef 0)
  %8 = call ptr @load_cert_pem(ptr noundef %7, ptr noundef null)
  store ptr %8, ptr @x509, align 8, !tbaa !4
  %9 = call i32 @test_ptr(ptr noundef @.str.14, i32 noundef 558, ptr noundef @.str.15, ptr noundef %8)
  %10 = icmp ne i32 %9, 0
  br i1 %10, label %12, label %11

11:                                               ; preds = %5
  store i32 0, ptr %1, align 4
  br label %13

12:                                               ; preds = %5
  call void @add_test(ptr noundef @.str.16, ptr noundef @test_http_url_dns)
  call void @add_test(ptr noundef @.str.17, ptr noundef @test_http_url_path_query)
  call void @add_test(ptr noundef @.str.18, ptr noundef @test_http_url_userinfo_query_fragment)
  call void @add_test(ptr noundef @.str.19, ptr noundef @test_http_url_ipv4)
  call void @add_test(ptr noundef @.str.20, ptr noundef @test_http_url_ipv6)
  call void @add_test(ptr noundef @.str.21, ptr noundef @test_http_url_invalid_prefix)
  call void @add_test(ptr noundef @.str.22, ptr noundef @test_http_url_invalid_port)
  call void @add_test(ptr noundef @.str.23, ptr noundef @test_http_url_invalid_path)
  call void @add_test(ptr noundef @.str.24, ptr noundef @test_http_get_txt)
  call void @add_test(ptr noundef @.str.25, ptr noundef @test_http_get_txt_redirected)
  call void @add_test(ptr noundef @.str.26, ptr noundef @test_http_get_txt_fatal_status)
  call void @add_test(ptr noundef @.str.27, ptr noundef @test_http_get_txt_error_status)
  call void @add_test(ptr noundef @.str.28, ptr noundef @test_http_post_txt)
  call void @add_test(ptr noundef @.str.29, ptr noundef @test_http_get_x509)
  call void @add_test(ptr noundef @.str.30, ptr noundef @test_http_get_x509_redirected)
  call void @add_test(ptr noundef @.str.31, ptr noundef @test_http_post_x509)
  call void @add_test(ptr noundef @.str.32, ptr noundef @test_http_post_x509_fatal_status)
  call void @add_test(ptr noundef @.str.33, ptr noundef @test_http_post_x509_error_status)
  call void @add_test(ptr noundef @.str.34, ptr noundef @test_http_keep_alive_0_no_no)
  call void @add_test(ptr noundef @.str.35, ptr noundef @test_http_keep_alive_1_no_no)
  call void @add_test(ptr noundef @.str.36, ptr noundef @test_http_keep_alive_0_prefer_yes)
  call void @add_test(ptr noundef @.str.37, ptr noundef @test_http_keep_alive_1_prefer_yes)
  call void @add_test(ptr noundef @.str.38, ptr noundef @test_http_keep_alive_0_require_yes)
  call void @add_test(ptr noundef @.str.39, ptr noundef @test_http_keep_alive_1_require_yes)
  call void @add_test(ptr noundef @.str.40, ptr noundef @test_http_keep_alive_0_require_no)
  call void @add_test(ptr noundef @.str.41, ptr noundef @test_http_keep_alive_1_require_no)
  call void @add_test(ptr noundef @.str.42, ptr noundef @test_hdr_resp_hdr_limit_none)
  call void @add_test(ptr noundef @.str.43, ptr noundef @test_hdr_resp_hdr_limit_short)
  call void @add_test(ptr noundef @.str.44, ptr noundef @test_hdr_resp_hdr_limit_256)
  store i32 1, ptr %1, align 4
  br label %13

13:                                               ; preds = %12, %11, %4
  %14 = load i32, ptr %1, align 4
  ret i32 %14
}