; Function Attrs: nounwind uwtable
define dso_local range(i32 0, 2) i32 @setup_tests() local_unnamed_addr #0 {
  %1 = tail call i32 @test_skip_common_options() #9
  %.not = icmp eq i32 %1, 0
  br i1 %.not, label %8, label %2

2:                                                ; preds = %0
  %3 = tail call ptr @X509_it() #9
  store ptr %3, ptr @x509_it, align 8, !tbaa !9
  %4 = tail call ptr @test_get_argument(i64 noundef 0) #9
  %5 = tail call ptr @load_cert_pem(ptr noundef %4, ptr noundef null) #9
  store ptr %5, ptr @x509, align 8, !tbaa !4
  %6 = tail call i32 @test_ptr(ptr noundef nonnull @.str.14, i32 noundef 558, ptr noundef nonnull @.str.15, ptr noundef %5) #9
  %.not1 = icmp eq i32 %6, 0
  br i1 %.not1, label %8, label %7

7:                                                ; preds = %2
  tail call void @add_test(ptr noundef nonnull @.str.16, ptr noundef nonnull @test_http_url_dns) #9
  tail call void @add_test(ptr noundef nonnull @.str.17, ptr noundef nonnull @test_http_url_path_query) #9
  tail call void @add_test(ptr noundef nonnull @.str.18, ptr noundef nonnull @test_http_url_userinfo_query_fragment) #9
  tail call void @add_test(ptr noundef nonnull @.str.19, ptr noundef nonnull @test_http_url_ipv4) #9
  tail call void @add_test(ptr noundef nonnull @.str.20, ptr noundef nonnull @test_http_url_ipv6) #9
  tail call void @add_test(ptr noundef nonnull @.str.21, ptr noundef nonnull @test_http_url_invalid_prefix) #9
  tail call void @add_test(ptr noundef nonnull @.str.22, ptr noundef nonnull @test_http_url_invalid_port) #9
  tail call void @add_test(ptr noundef nonnull @.str.23, ptr noundef nonnull @test_http_url_invalid_path) #9
  tail call void @add_test(ptr noundef nonnull @.str.24, ptr noundef nonnull @test_http_get_txt) #9
  tail call void @add_test(ptr noundef nonnull @.str.25, ptr noundef nonnull @test_http_get_txt_redirected) #9
  tail call void @add_test(ptr noundef nonnull @.str.26, ptr noundef nonnull @test_http_get_txt_fatal_status) #9
  tail call void @add_test(ptr noundef nonnull @.str.27, ptr noundef nonnull @test_http_get_txt_error_status) #9
  tail call void @add_test(ptr noundef nonnull @.str.28, ptr noundef nonnull @test_http_post_txt) #9
  tail call void @add_test(ptr noundef nonnull @.str.29, ptr noundef nonnull @test_http_get_x509) #9
  tail call void @add_test(ptr noundef nonnull @.str.30, ptr noundef nonnull @test_http_get_x509_redirected) #9
  tail call void @add_test(ptr noundef nonnull @.str.31, ptr noundef nonnull @test_http_post_x509) #9
  tail call void @add_test(ptr noundef nonnull @.str.32, ptr noundef nonnull @test_http_post_x509_fatal_status) #9
  tail call void @add_test(ptr noundef nonnull @.str.33, ptr noundef nonnull @test_http_post_x509_error_status) #9
  tail call void @add_test(ptr noundef nonnull @.str.34, ptr noundef nonnull @test_http_keep_alive_0_no_no) #9
  tail call void @add_test(ptr noundef nonnull @.str.35, ptr noundef nonnull @test_http_keep_alive_1_no_no) #9
  tail call void @add_test(ptr noundef nonnull @.str.36, ptr noundef nonnull @test_http_keep_alive_0_prefer_yes) #9
  tail call void @add_test(ptr noundef nonnull @.str.37, ptr noundef nonnull @test_http_keep_alive_1_prefer_yes) #9
  tail call void @add_test(ptr noundef nonnull @.str.38, ptr noundef nonnull @test_http_keep_alive_0_require_yes) #9
  tail call void @add_test(ptr noundef nonnull @.str.39, ptr noundef nonnull @test_http_keep_alive_1_require_yes) #9
  tail call void @add_test(ptr noundef nonnull @.str.40, ptr noundef nonnull @test_http_keep_alive_0_require_no) #9
  tail call void @add_test(ptr noundef nonnull @.str.41, ptr noundef nonnull @test_http_keep_alive_1_require_no) #9
  tail call void @add_test(ptr noundef nonnull @.str.42, ptr noundef nonnull @test_hdr_resp_hdr_limit_none) #9
  tail call void @add_test(ptr noundef nonnull @.str.43, ptr noundef nonnull @test_hdr_resp_hdr_limit_short) #9
  tail call void @add_test(ptr noundef nonnull @.str.44, ptr noundef nonnull @test_hdr_resp_hdr_limit_256) #9
  br label %8

8:                                                ; preds = %2, %0, %7
  %.0 = phi i32 [ 1, %7 ], [ 0, %0 ], [ 0, %2 ]
  ret i32 %.0
}